; ModuleID = 'source-C-CXX/9/1252.c'
source_filename = "source-C-CXX/9/1252.c"
target datalayout = "e-m:e-p270:32:32-p271:32:32-p272:64:64-i64:64-f80:128-n8:16:32:64-S128"
target triple = "x86_64-pc-linux-gnu"

@.str = private unnamed_addr constant [3 x i8] c"%d\00", align 1
@.str.1 = private unnamed_addr constant [4 x i8] c"%d\0A\00", align 1
@.str.3 = private unnamed_addr constant [4 x i8] c"%d,\00", align 1
@str = private unnamed_addr constant [7 x i8] c"input:\00", align 1

; Function Attrs: nofree nosync nounwind readonly sspstrong uwtable
define dso_local signext i8 @f(i32 %0, i32* %1, i8 signext %2, i8 signext %3) local_unnamed_addr #0 {
  %5 = icmp eq i8 %2, %3
  br i1 %5, label %6, label %13

6:                                                ; preds = %29, %4
  %7 = sext i8 %3 to i64
  %8 = add nsw i64 %7, -1
  %9 = getelementptr inbounds i32, i32* %1, i64 %8
  %10 = load i32, i32* %9, align 4, !tbaa !5
  %11 = icmp sle i32 %10, %0
  %12 = zext i1 %11 to i8
  br label %21

13:                                               ; preds = %4, %29
  %14 = phi i8 [ %20, %29 ], [ %2, %4 ]
  %15 = sext i8 %14 to i64
  %16 = add nsw i64 %15, -1
  %17 = getelementptr inbounds i32, i32* %1, i64 %16
  %18 = load i32, i32* %17, align 4, !tbaa !5
  %19 = icmp sgt i32 %18, %0
  %20 = add i8 %14, 1
  br i1 %19, label %29, label %23

21:                                               ; preds = %6, %23
  %22 = phi i8 [ %28, %23 ], [ %12, %6 ]
  ret i8 %22

23:                                               ; preds = %13
  %24 = tail call signext i8 @f(i32 %0, i32* nonnull %1, i8 signext %20, i8 signext %3)
  %25 = tail call signext i8 @f(i32 %18, i32* nonnull %1, i8 signext %20, i8 signext %3)
  %26 = add i8 %25, 1
  %27 = icmp sgt i8 %24, %26
  %28 = select i1 %27, i8 %24, i8 %26
  br label %21

29:                                               ; preds = %13
  %30 = icmp eq i8 %20, %3
  br i1 %30, label %6, label %13
}

; Function Attrs: argmemonly mustprogress nofree nosync nounwind willreturn
declare void @llvm.lifetime.start.p0i8(i64 immarg, i8* nocapture) #1

; Function Attrs: argmemonly mustprogress nofree nosync nounwind willreturn
declare void @llvm.lifetime.end.p0i8(i64 immarg, i8* nocapture) #1

; Function Attrs: nofree nounwind sspstrong uwtable
define dso_local void @main() local_unnamed_addr #2 {
  %1 = alloca [100 x i32], align 16
  %2 = alloca i8, align 1
  %3 = bitcast [100 x i32]* %1 to i8*
  call void @llvm.lifetime.start.p0i8(i64 400, i8* nonnull %3) #5
  call void @llvm.lifetime.start.p0i8(i64 1, i8* nonnull %2) #5
  %4 = call i32 (i8*, ...) @__isoc99_scanf(i8* getelementptr inbounds ([3 x i8], [3 x i8]* @.str, i64 0, i64 0), i8* nonnull %2)
  %5 = load i8, i8* %2, align 1, !tbaa !9
  %6 = icmp sgt i8 %5, 0
  br i1 %6, label %7, label %15

7:                                                ; preds = %0, %7
  %8 = phi i64 [ %11, %7 ], [ 0, %0 ]
  %9 = getelementptr inbounds [100 x i32], [100 x i32]* %1, i64 0, i64 %8
  %10 = call i32 (i8*, ...) @__isoc99_scanf(i8* getelementptr inbounds ([3 x i8], [3 x i8]* @.str, i64 0, i64 0), i32* nonnull %9)
  %11 = add nuw nsw i64 %8, 1
  %12 = load i8, i8* %2, align 1, !tbaa !9
  %13 = sext i8 %12 to i64
  %14 = icmp slt i64 %11, %13
  br i1 %14, label %7, label %15, !llvm.loop !10

15:                                               ; preds = %7, %0
  %16 = phi i8 [ %5, %0 ], [ %12, %7 ]
  %17 = getelementptr inbounds [100 x i32], [100 x i32]* %1, i64 0, i64 0
  %18 = call signext i8 @f(i32 2147483647, i32* nonnull %17, i8 signext 1, i8 signext %16)
  %19 = sext i8 %18 to i32
  %20 = call i32 (i8*, ...) @printf(i8* nonnull dereferenceable(1) getelementptr inbounds ([4 x i8], [4 x i8]* @.str.1, i64 0, i64 0), i32 %19)
  %21 = call i32 @puts(i8* nonnull dereferenceable(1) getelementptr inbounds ([7 x i8], [7 x i8]* @str, i64 0, i64 0))
  %22 = load i8, i8* %2, align 1, !tbaa !9
  %23 = icmp sgt i8 %22, 0
  br i1 %23, label %24, label %33

24:                                               ; preds = %15, %24
  %25 = phi i64 [ %29, %24 ], [ 0, %15 ]
  %26 = getelementptr inbounds [100 x i32], [100 x i32]* %1, i64 0, i64 %25
  %27 = load i32, i32* %26, align 4, !tbaa !5
  %28 = call i32 (i8*, ...) @printf(i8* nonnull dereferenceable(1) getelementptr inbounds ([4 x i8], [4 x i8]* @.str.3, i64 0, i64 0), i32 %27)
  %29 = add nuw nsw i64 %25, 1
  %30 = load i8, i8* %2, align 1, !tbaa !9
  %31 = sext i8 %30 to i64
  %32 = icmp slt i64 %29, %31
  br i1 %32, label %24, label %33, !llvm.loop !12

33:                                               ; preds = %24, %15
  call void @llvm.lifetime.end.p0i8(i64 1, i8* nonnull %2) #5
  call void @llvm.lifetime.end.p0i8(i64 400, i8* nonnull %3) #5
  ret void
}

; Function Attrs: nofree nounwind
declare noundef i32 @__isoc99_scanf(i8* nocapture noundef readonly, ...) local_unnamed_addr #3

; Function Attrs: nofree nounwind
declare noundef i32 @printf(i8* nocapture noundef readonly, ...) local_unnamed_addr #3

; Function Attrs: nofree nounwind
declare noundef i32 @puts(i8* nocapture noundef readonly) local_unnamed_addr #4


!llvm.module.flags = !{!0, !1, !2, !3}
!llvm.ident = !{!4}

!0 = !{i32 1, !"wchar_size", i32 4}
!1 = !{i32 7, !"PIC Level", i32 2}
!2 = !{i32 7, !"PIE Level", i32 2}
!3 = !{i32 7, !"uwtable", i32 1}
!4 = !{!"clang version 13.0.0"}
!5 = !{!6, !6, i64 0}
!6 = !{!"int", !7, i64 0}
!7 = !{!"omnipotent char", !8, i64 0}
!8 = !{!"Simple C/C++ TBAA"}
!9 = !{!7, !7, i64 0}
!10 = distinct !{!10, !11}
!11 = !{!"llvm.loop.mustprogress"}
!12 = distinct !{!12, !11}
